; Function Attrs: mustprogress uwtable
define void @_ZN32pxrInternal_v0_24__pxrReserved__35HgiShaderFunctionAddArrayOfTexturesEPNS_21HgiShaderFunctionDescERKNSt7__cxx1112basic_stringIcSt11char_traitsIcESaIcEEEjjjRKNS_9HgiFormatENS_20HgiShaderTextureTypeE(ptr noundef %0, ptr noundef nonnull align 8 dereferenceable(32) %1, i32 noundef %2, i32 noundef %3, i32 noundef %4, ptr noundef nonnull readonly align 4 captures(none) dereferenceable(4) %5, i32 noundef %6) local_unnamed_addr #3 personality ptr @__gxx_personality_v0 {
  %8 = alloca %"struct.pxrInternal_v0_24__pxrReserved__::HgiShaderFunctionTextureDesc", align 8
  call void @_ZN32pxrInternal_v0_24__pxrReserved__28HgiShaderFunctionTextureDescC1Ev(ptr noundef nonnull align 8 dereferenceable(57) %8)
  %9 = invoke noundef nonnull align 8 dereferenceable(32) ptr @_ZNSt7__cxx1112basic_stringIcSt11char_traitsIcESaIcEEaSERKS4_(ptr noundef nonnull align 8 dereferenceable(32) %8, ptr noundef nonnull align 8 dereferenceable(32) %1)
          to label %10 unwind label %29

10:                                               ; preds = %7
  %11 = getelementptr inbounds nuw i8, ptr %8, i64 44
  store i32 %3, ptr %11, align 4
  %12 = getelementptr inbounds nuw i8, ptr %8, i64 32
  store i32 %4, ptr %12, align 8
  %13 = load i32, ptr %5, align 4
  %14 = getelementptr inbounds nuw i8, ptr %8, i64 36
  store i32 %13, ptr %14, align 4
  %15 = getelementptr inbounds nuw i8, ptr %8, i64 40
  store i32 %6, ptr %15, align 8
  %16 = zext i32 %2 to i64
  %17 = getelementptr inbounds nuw i8, ptr %8, i64 48
  store i64 %16, ptr %17, align 8
  %18 = getelementptr inbounds nuw i8, ptr %8, i64 56
  store i8 0, ptr %18, align 8
  %19 = getelementptr inbounds nuw i8, ptr %0, i64 72
  %20 = load ptr, ptr %19, align 8
  %21 = getelementptr inbounds nuw i8, ptr %0, i64 80
  %22 = load ptr, ptr %21, align 8
  %.not.i.i = icmp eq ptr %20, %22
  br i1 %.not.i.i, label %27, label %23

23:                                               ; preds = %10
  call void @_ZNSt7__cxx1112basic_stringIcSt11char_traitsIcESaIcEEC1EOS4_(ptr noundef nonnull align 8 dereferenceable(57) %20, ptr noundef nonnull align 8 dereferenceable(57) %8) #16
  %24 = getelementptr inbounds nuw i8, ptr %20, i64 32
  call void @llvm.memcpy.p0.p0.i64(ptr noundef nonnull align 8 dereferenceable(25) %24, ptr noundef nonnull align 8 dereferenceable(25) %12, i64 25, i1 false)
  %25 = load ptr, ptr %19, align 8
  %26 = getelementptr inbounds nuw i8, ptr %25, i64 64
  store ptr %26, ptr %19, align 8
  br label %_ZNSt6vectorIN32pxrInternal_v0_24__pxrReserved__28HgiShaderFunctionTextureDescESaIS1_EE9push_backEOS1_.exit

27:                                               ; preds = %10
  %28 = getelementptr inbounds nuw i8, ptr %0, i64 64
  invoke void @_ZNSt6vectorIN32pxrInternal_v0_24__pxrReserved__28HgiShaderFunctionTextureDescESaIS1_EE17_M_realloc_insertIJS1_EEEvN9__gnu_cxx17__normal_iteratorIPS1_S3_EEDpOT_(ptr noundef nonnull align 8 dereferenceable(24) %28, ptr %20, ptr noundef nonnull align 8 dereferenceable(57) %8)
          to label %_ZNSt6vectorIN32pxrInternal_v0_24__pxrReserved__28HgiShaderFunctionTextureDescESaIS1_EE9push_backEOS1_.exit unwind label %29

_ZNSt6vectorIN32pxrInternal_v0_24__pxrReserved__28HgiShaderFunctionTextureDescESaIS1_EE9push_backEOS1_.exit: ; preds = %23, %27
  call void @_ZNSt7__cxx1112basic_stringIcSt11char_traitsIcESaIcEED1Ev(ptr noundef nonnull align 8 dereferenceable(57) %8) #16
  ret void

29:                                               ; preds = %27, %7
  %30 = landingpad { ptr, i32 }
          cleanup
  call void @_ZNSt7__cxx1112basic_stringIcSt11char_traitsIcESaIcEED1Ev(ptr noundef nonnull align 8 dereferenceable(57) %8) #16
  resume { ptr, i32 } %30
}